target datalayout = "e-m:e-p270:32:32-p271:32:32-p272:64:64-i64:64-i128:128-f80:128-n8:16:32:64-S128"
target triple = "x86_64-pc-linux-gnu"

; Function Attrs: nounwind uwtable
define void @Pla_ReadPlaRemoveComments(ptr noundef %0, ptr noundef %1) #0 {
  %3 = alloca ptr, align 8
  %4 = alloca ptr, align 8
  %5 = alloca ptr, align 8
  store ptr %0, ptr %3, align 8, !tbaa !3
  store ptr %1, ptr %4, align 8, !tbaa !3
  call void @llvm.lifetime.start.p0(i64 8, ptr %5) #10
  %6 = load ptr, ptr %3, align 8, !tbaa !3
  store ptr %6, ptr %5, align 8, !tbaa !3
  br label %7

7:                                                ; preds = %34, %2
  %8 = load ptr, ptr %5, align 8, !tbaa !3
  %9 = load ptr, ptr %4, align 8, !tbaa !3
  %10 = icmp ult ptr %8, %9
  br i1 %10, label %11, label %37

11:                                               ; preds = %7
  %12 = load ptr, ptr %5, align 8, !tbaa !3
  %13 = load i8, ptr %12, align 1, !tbaa !14
  %14 = sext i8 %13 to i32
  %15 = icmp eq i32 %14, 35
  br i1 %15, label %16, label %33

16:                                               ; preds = %11
  br label %17

17:                                               ; preds = %29, %16
  %18 = load ptr, ptr %5, align 8, !tbaa !3
  %19 = load i8, ptr %18, align 1, !tbaa !14
  %20 = sext i8 %19 to i32
  %21 = icmp ne i32 %20, 0
  br i1 %21, label %22, label %27

22:                                               ; preds = %17
  %23 = load ptr, ptr %5, align 8, !tbaa !3
  %24 = load i8, ptr %23, align 1, !tbaa !14
  %25 = sext i8 %24 to i32
  %26 = icmp ne i32 %25, 10
  br label %27

27:                                               ; preds = %22, %17
  %28 = phi i1 [ false, %17 ], [ %26, %22 ]
  br i1 %28, label %29, label %32

29:                                               ; preds = %27
  %30 = load ptr, ptr %5, align 8, !tbaa !3
  %31 = getelementptr inbounds nuw i8, ptr %30, i32 1
  store ptr %31, ptr %5, align 8, !tbaa !3
  store i8 32, ptr %30, align 1, !tbaa !14
  br label %17, !llvm.loop !15

32:                                               ; preds = %27
  br label %33

33:                                               ; preds = %32, %11
  br label %34

34:                                               ; preds = %33
  %35 = load ptr, ptr %5, align 8, !tbaa !3
  %36 = getelementptr inbounds nuw i8, ptr %35, i32 1
  store ptr %36, ptr %5, align 8, !tbaa !3
  br label %7, !llvm.loop !17

37:                                               ; preds = %7
  call void @llvm.lifetime.end.p0(i64 8, ptr %5) #10
  ret void
}