; Function Attrs: nofree norecurse nosync nounwind memory(argmem: readwrite) uwtable
define void @Pla_ReadPlaRemoveComments(ptr noundef %0, ptr noundef readnone %1) local_unnamed_addr #4 {
  %3 = icmp ult ptr %0, %1
  br i1 %3, label %.lr.ph, label %._crit_edge

.lr.ph:                                           ; preds = %2, %.critedge
  %.010 = phi ptr [ %9, %.critedge ], [ %0, %2 ]
  %4 = load i8, ptr %.010, align 1, !tbaa !3
  %5 = icmp eq i8 %4, 35
  br i1 %5, label %.preheader, label %.critedge

.preheader:                                       ; preds = %.lr.ph, %7
  %6 = phi i8 [ %.pr, %7 ], [ 35, %.lr.ph ]
  %.1 = phi ptr [ %8, %7 ], [ %.010, %.lr.ph ]
  switch i8 %6, label %7 [
    i8 0, label %.critedge
    i8 10, label %.critedge
  ]

7:                                                ; preds = %.preheader
  %8 = getelementptr inbounds nuw i8, ptr %.1, i64 1
  store i8 32, ptr %.1, align 1, !tbaa !3
  %.pr = load i8, ptr %8, align 1, !tbaa !3
  br label %.preheader, !llvm.loop !9

.critedge:                                        ; preds = %.preheader, %.preheader, %.lr.ph
  %.2 = phi ptr [ %.010, %.lr.ph ], [ %.1, %.preheader ], [ %.1, %.preheader ]
  %9 = getelementptr inbounds nuw i8, ptr %.2, i64 1
  %10 = icmp ult ptr %9, %1
  br i1 %10, label %.lr.ph, label %._crit_edge, !llvm.loop !11

._crit_edge:                                      ; preds = %.critedge, %2
  ret void
}